target datalayout = "e-m:e-p270:32:32-p271:32:32-p272:64:64-i64:64-i128:128-f80:128-n8:16:32:64-S128"
target triple = "x86_64-pc-linux-gnu"

%struct.pmix_lock_t = type { i32, %struct.pmix_mutex_t, %union.pthread_cond_t, i8 }
%struct.pmix_mutex_t = type { %struct.pmix_object_t, %union.pthread_mutex_t }
%struct.pmix_object_t = type { %union.pthread_mutex_t, ptr, i32, %struct.pmix_tma }
%struct.pmix_tma = type { ptr, ptr, ptr, ptr, ptr, ptr, ptr, ptr }
%union.pthread_mutex_t = type { %struct.__pthread_mutex_s }
%struct.__pthread_mutex_s = type { i32, i32, i32, i32, i32, i16, i16, %struct.__pthread_internal_list }
%struct.__pthread_internal_list = type { ptr, ptr }
%union.pthread_cond_t = type { %struct.__pthread_cond_s }
%struct.__pthread_cond_s = type { %union.__atomic_wide_counter, %union.__atomic_wide_counter, [2 x i32], [2 x i32], i32, i32, [2 x i32] }
%union.__atomic_wide_counter = type { i64 }

; Function Attrs: inlinehint nounwind uwtable
define internal void @pmix_mutex_unlock(ptr noundef %0) #3 {
  %2 = alloca ptr, align 8
  store ptr %0, ptr %2, align 8, !tbaa !173
  %3 = load ptr, ptr %2, align 8, !tbaa !173
  %4 = getelementptr inbounds nuw %struct.pmix_mutex_t, ptr %3, i32 0, i32 1
  %5 = call i32 @pthread_mutex_unlock(ptr noundef %4) #13
  ret void
}

; Function Attrs: inlinehint nounwind uwtable
define internal void @pmix_atomic_wmb() #3 {
  fence release
  ret void
}

; Function Attrs: inlinehint nounwind uwtable
define internal void @pmix_mutex_lock(ptr noundef %0) #3 {
  %2 = alloca ptr, align 8
  store ptr %0, ptr %2, align 8, !tbaa !173
  %3 = load ptr, ptr %2, align 8, !tbaa !173
  %4 = getelementptr inbounds nuw %struct.pmix_mutex_t, ptr %3, i32 0, i32 1
  %5 = call i32 @pthread_mutex_lock(ptr noundef %4) #13
  ret void
}

; Function Attrs: nounwind uwtable
define internal void @evhandler_reg_callbk(i32 noundef %0, i64 noundef %1, ptr noundef %2) #0 {
  %4 = alloca i32, align 4
  %5 = alloca i64, align 8
  %6 = alloca ptr, align 8
  %7 = alloca ptr, align 8
  store i32 %0, ptr %4, align 4, !tbaa !14
  store i64 %1, ptr %5, align 8, !tbaa !10
  store ptr %2, ptr %6, align 8, !tbaa !60
  call void @llvm.lifetime.start.p0(i64 8, ptr %7) #13
  %8 = load ptr, ptr %6, align 8, !tbaa !60
  store ptr %8, ptr %7, align 8, !tbaa !60
  %9 = load i32, ptr %4, align 4, !tbaa !14
  %10 = load ptr, ptr %7, align 8, !tbaa !60
  %11 = getelementptr inbounds nuw %struct.pmix_lock_t, ptr %10, i32 0, i32 0
  store i32 %9, ptr %11, align 8, !tbaa !226
  br label %12

12:                                               ; preds = %3
  %13 = load ptr, ptr %7, align 8, !tbaa !60
  %14 = getelementptr inbounds nuw %struct.pmix_lock_t, ptr %13, i32 0, i32 1
  call void @pmix_mutex_lock(ptr noundef %14)
  %15 = load ptr, ptr %7, align 8, !tbaa !60
  %16 = getelementptr inbounds nuw %struct.pmix_lock_t, ptr %15, i32 0, i32 3
  store volatile i8 0, ptr %16, align 8, !tbaa !18
  call void @pmix_atomic_wmb()
  %17 = load ptr, ptr %7, align 8, !tbaa !60
  %18 = getelementptr inbounds nuw %struct.pmix_lock_t, ptr %17, i32 0, i32 2
  %19 = call i32 @pthread_cond_broadcast(ptr noundef %18) #13
  %20 = load ptr, ptr %7, align 8, !tbaa !60
  %21 = getelementptr inbounds nuw %struct.pmix_lock_t, ptr %20, i32 0, i32 1
  call void @pmix_mutex_unlock(ptr noundef %21)
  br label %22

22:                                               ; preds = %12
  br label %23

23:                                               ; preds = %22
  call void @llvm.lifetime.end.p0(i64 8, ptr %7) #13
  ret void
}